; Function Attrs: nounwind uwtable
define internal void @blkoutstream_putc(ptr noundef captures(none) %0, i32 noundef %1) #0 {
  %3 = alloca i8, align 1
  %4 = trunc i32 %1 to i8
  store i8 %4, ptr %3, align 1
  %5 = getelementptr inbounds nuw i8, ptr %0, i64 48
  %6 = load i16, ptr %5, align 8
  %7 = sext i16 %6 to i64
  %8 = getelementptr inbounds nuw i8, ptr %0, i64 32
  %9 = load ptr, ptr %8, align 8
  %10 = getelementptr inbounds nuw i8, ptr %9, i64 32
  %11 = getelementptr inbounds nuw i8, ptr %0, i64 88
  br label %12

12:                                               ; preds = %61, %2
  %.06474.i = phi ptr [ %3, %2 ], [ %.1.i, %61 ]
  %.06573.i = phi i64 [ 1, %2 ], [ %.166.i, %61 ]
  %13 = load i32, ptr %0, align 8
  %14 = sext i32 %13 to i64
  %15 = udiv i64 %14, %7
  %16 = urem i64 %14, %7
  %.not71.i = icmp eq i64 %16, 0
  br i1 %.not71.i, label %39, label %17

17:                                               ; preds = %12
  %18 = add i64 %16, %.06573.i
  %19 = icmp ugt i64 %18, %7
  %20 = sub i64 %7, %16
  %21 = select i1 %19, i64 %20, i64 %.06573.i
  %22 = load ptr, ptr %11, align 8
  %23 = getelementptr inbounds i8, ptr %22, i64 %16
  call void @llvm.memcpy.p0.p0.i64(ptr nonnull align 1 %23, ptr align 1 %.06474.i, i64 %21, i1 false)
  %24 = add i64 %21, %16
  %25 = load i32, ptr %0, align 8
  %26 = trunc i64 %21 to i32
  %27 = add i32 %25, %26
  store i32 %27, ptr %0, align 8
  %28 = load i16, ptr %5, align 8
  %29 = sext i16 %28 to i64
  %30 = icmp eq i64 %24, %29
  br i1 %30, label %31, label %61

31:                                               ; preds = %17
  %32 = load ptr, ptr %10, align 8
  %33 = getelementptr inbounds nuw i8, ptr %32, i64 24
  %34 = load ptr, ptr %33, align 8
  %35 = load ptr, ptr %11, align 8
  %36 = trunc i64 %15 to i32
  %37 = call i64 %34(ptr noundef %9, ptr noundef %35, i32 noundef %36, i32 noundef 1) #6
  %38 = and i64 %37, 2147483648
  %.not = icmp eq i64 %38, 0
  br i1 %.not, label %61, label %blkoutstream_puts.exit

39:                                               ; preds = %12
  %40 = load i16, ptr %5, align 8
  %41 = sext i16 %40 to i64
  %42 = icmp ult i64 %.06573.i, %41
  br i1 %42, label %.thread.i, label %47

.thread.i:                                        ; preds = %39
  %43 = load ptr, ptr %11, align 8
  call void @llvm.memcpy.p0.p0.i64(ptr noundef nonnull align 1 dereferenceable(1) %43, ptr noundef nonnull align 1 dereferenceable(1) %.06474.i, i64 %.06573.i, i1 false)
  %44 = load i32, ptr %0, align 8
  %45 = trunc i64 %.06573.i to i32
  %46 = add i32 %44, %45
  store i32 %46, ptr %0, align 8
  br label %blkoutstream_puts.exit

47:                                               ; preds = %39
  %48 = udiv i64 %.06573.i, %41
  %49 = load ptr, ptr %10, align 8
  %50 = getelementptr inbounds nuw i8, ptr %49, i64 24
  %51 = load ptr, ptr %50, align 8
  %52 = trunc i64 %15 to i32
  %53 = trunc i64 %48 to i32
  %54 = call i64 %51(ptr noundef %9, ptr noundef %.06474.i, i32 noundef %52, i32 noundef %53) #6
  %55 = and i64 %54, 2147483648
  %.not1 = icmp eq i64 %55, 0
  br i1 %.not1, label %56, label %blkoutstream_puts.exit

56:                                               ; preds = %47
  %57 = mul i64 %48, %41
  %58 = load i32, ptr %0, align 8
  %59 = trunc i64 %57 to i32
  %60 = add i32 %58, %59
  store i32 %60, ptr %0, align 8
  br label %61

61:                                               ; preds = %56, %31, %17
  %.pn.i = phi i64 [ %21, %31 ], [ %21, %17 ], [ %57, %56 ]
  %.1.i = getelementptr inbounds i8, ptr %.06474.i, i64 %.pn.i
  %.166.i = sub i64 %.06573.i, %.pn.i
  %.not.i = icmp eq i64 %.166.i, 0
  br i1 %.not.i, label %blkoutstream_puts.exit, label %12, !llvm.loop !6

blkoutstream_puts.exit:                           ; preds = %31, %47, %61, %.thread.i
  ret void
}